; ModuleID = 'source-C-CXX/20/588.cpp'
source_filename = "source-C-CXX/20/588.cpp"
target datalayout = "e-m:e-p270:32:32-p271:32:32-p272:64:64-i64:64-f80:128-n8:16:32:64-S128"
target triple = "x86_64-pc-linux-gnu"

%"class.std::ios_base::Init" = type { i8 }
%"class.std::basic_istream" = type { i32 (...)**, i64, %"class.std::basic_ios" }
%"class.std::basic_ios" = type { %"class.std::ios_base", %"class.std::basic_ostream"*, i8, i8, %"class.std::basic_streambuf"*, %"class.std::ctype"*, %"class.std::num_put"*, %"class.std::num_get"* }
%"class.std::ios_base" = type { i32 (...)**, i64, i64, i32, i32, i32, %"struct.std::ios_base::_Callback_list"*, %"struct.std::ios_base::_Words", [8 x %"struct.std::ios_base::_Words"], i32, %"struct.std::ios_base::_Words"*, %"class.std::locale" }
%"struct.std::ios_base::_Callback_list" = type { %"struct.std::ios_base::_Callback_list"*, void (i32, %"class.std::ios_base"*, i32)*, i32, i32 }
%"struct.std::ios_base::_Words" = type { i8*, i64 }
%"class.std::locale" = type { %"class.std::locale::_Impl"* }
%"class.std::locale::_Impl" = type { i32, %"class.std::locale::facet"**, i64, %"class.std::locale::facet"**, i8** }
%"class.std::locale::facet" = type <{ i32 (...)**, i32, [4 x i8] }>
%"class.std::basic_ostream" = type { i32 (...)**, %"class.std::basic_ios" }
%"class.std::basic_streambuf" = type { i32 (...)**, i8*, i8*, i8*, i8*, i8*, i8*, %"class.std::locale" }
%"class.std::ctype" = type <{ %"class.std::locale::facet.base", [4 x i8], %struct.__locale_struct*, i8, [7 x i8], i32*, i32*, i16*, i8, [256 x i8], [256 x i8], i8, [6 x i8] }>
%"class.std::locale::facet.base" = type <{ i32 (...)**, i32 }>
%struct.__locale_struct = type { [13 x %struct.__locale_data*], i16*, i32*, i32*, [13 x i8*] }
%struct.__locale_data = type opaque
%"class.std::num_put" = type { %"class.std::locale::facet.base", [4 x i8] }
%"class.std::num_get" = type { %"class.std::locale::facet.base", [4 x i8] }

@_ZStL8__ioinit = internal global %"class.std::ios_base::Init" zeroinitializer, align 1
@__dso_handle = external hidden global i8
@_ZSt3cin = external global %"class.std::basic_istream", align 8
@_ZSt4cout = external global %"class.std::basic_ostream", align 8
@llvm.global_ctors = appending global [1 x { i32, void ()*, i8* }] [{ i32, void ()*, i8* } { i32 65535, void ()* @_GLOBAL__sub_I_588.cpp, i8* null }]

declare void @_ZNSt8ios_base4InitC1Ev(%"class.std::ios_base::Init"* nonnull align 1 dereferenceable(1)) unnamed_addr #0

; Function Attrs: nounwind
declare void @_ZNSt8ios_base4InitD1Ev(%"class.std::ios_base::Init"* nonnull align 1 dereferenceable(1)) unnamed_addr #1

; Function Attrs: nofree nounwind
declare i32 @__cxa_atexit(void (i8*)*, i8*, i8*) local_unnamed_addr #2

; Function Attrs: mustprogress norecurse sspstrong uwtable
define dso_local i32 @main() local_unnamed_addr #3 {
  %1 = alloca i8, align 1
  %2 = alloca i32, align 4
  %3 = alloca [300 x i32], align 16
  %4 = alloca [300 x double], align 16
  %5 = bitcast i32* %2 to i8*
  call void @llvm.lifetime.start.p0i8(i64 4, i8* nonnull %5) #7
  %6 = bitcast [300 x i32]* %3 to i8*
  call void @llvm.lifetime.start.p0i8(i64 1200, i8* nonnull %6) #7
  %7 = bitcast [300 x double]* %4 to i8*
  call void @llvm.lifetime.start.p0i8(i64 2400, i8* nonnull %7) #7
  %8 = call nonnull align 8 dereferenceable(16) %"class.std::basic_istream"* @_ZNSirsERi(%"class.std::basic_istream"* nonnull align 8 dereferenceable(16) @_ZSt3cin, i32* nonnull align 4 dereferenceable(4) %2)
  %9 = load i32, i32* %2, align 4, !tbaa !5
  %10 = icmp sgt i32 %9, 0
  br i1 %10, label %11, label %102

11:                                               ; preds = %0, %11
  %12 = phi i64 [ %18, %11 ], [ 0, %0 ]
  %13 = phi i32 [ %17, %11 ], [ 0, %0 ]
  %14 = getelementptr inbounds [300 x i32], [300 x i32]* %3, i64 0, i64 %12
  %15 = call nonnull align 8 dereferenceable(16) %"class.std::basic_istream"* @_ZNSirsERi(%"class.std::basic_istream"* nonnull align 8 dereferenceable(16) @_ZSt3cin, i32* nonnull align 4 dereferenceable(4) %14)
  %16 = load i32, i32* %14, align 4, !tbaa !5
  %17 = add nsw i32 %16, %13
  %18 = add nuw nsw i64 %12, 1
  %19 = load i32, i32* %2, align 4, !tbaa !5
  %20 = sext i32 %19 to i64
  %21 = icmp slt i64 %18, %20
  br i1 %21, label %11, label %22, !llvm.loop !9

22:                                               ; preds = %11
  %23 = sitofp i32 %17 to double
  %24 = sitofp i32 %19 to double
  %25 = fdiv double %23, %24
  %26 = icmp sgt i32 %19, 0
  br i1 %26, label %27, label %102

27:                                               ; preds = %22
  %28 = zext i32 %19 to i64
  %29 = and i64 %28, 1
  %30 = icmp eq i32 %19, 1
  br i1 %30, label %33, label %31

31:                                               ; preds = %27
  %32 = and i64 %28, 4294967294
  br label %50

33:                                               ; preds = %50, %27
  %34 = phi double [ undef, %27 ], [ %72, %50 ]
  %35 = phi i64 [ 0, %27 ], [ %73, %50 ]
  %36 = phi double [ 0.000000e+00, %27 ], [ %72, %50 ]
  %37 = icmp eq i64 %29, 0
  br i1 %37, label %48, label %38

38:                                               ; preds = %33
  %39 = getelementptr inbounds [300 x i32], [300 x i32]* %3, i64 0, i64 %35
  %40 = load i32, i32* %39, align 4, !tbaa !5
  %41 = sitofp i32 %40 to double
  %42 = fsub double %41, %25
  %43 = call double @llvm.fabs.f64(double %42)
  %44 = getelementptr inbounds [300 x double], [300 x double]* %4, i64 0, i64 %35
  store double %43, double* %44, align 8, !tbaa !11
  %45 = fsub double %43, %36
  %46 = fcmp ogt double %45, 0x3EB0C6F7A0B5ED8D
  %47 = select i1 %46, double %43, double %36
  br label %48

48:                                               ; preds = %33, %38
  %49 = phi double [ %34, %33 ], [ %47, %38 ]
  br i1 %26, label %76, label %102

50:                                               ; preds = %50, %31
  %51 = phi i64 [ 0, %31 ], [ %73, %50 ]
  %52 = phi double [ 0.000000e+00, %31 ], [ %72, %50 ]
  %53 = phi i64 [ %32, %31 ], [ %74, %50 ]
  %54 = getelementptr inbounds [300 x i32], [300 x i32]* %3, i64 0, i64 %51
  %55 = load i32, i32* %54, align 8, !tbaa !5
  %56 = sitofp i32 %55 to double
  %57 = fsub double %56, %25
  %58 = call double @llvm.fabs.f64(double %57)
  %59 = getelementptr inbounds [300 x double], [300 x double]* %4, i64 0, i64 %51
  store double %58, double* %59, align 16, !tbaa !11
  %60 = fsub double %58, %52
  %61 = fcmp ogt double %60, 0x3EB0C6F7A0B5ED8D
  %62 = select i1 %61, double %58, double %52
  %63 = or i64 %51, 1
  %64 = getelementptr inbounds [300 x i32], [300 x i32]* %3, i64 0, i64 %63
  %65 = load i32, i32* %64, align 4, !tbaa !5
  %66 = sitofp i32 %65 to double
  %67 = fsub double %66, %25
  %68 = call double @llvm.fabs.f64(double %67)
  %69 = getelementptr inbounds [300 x double], [300 x double]* %4, i64 0, i64 %63
  store double %68, double* %69, align 8, !tbaa !11
  %70 = fsub double %68, %62
  %71 = fcmp ogt double %70, 0x3EB0C6F7A0B5ED8D
  %72 = select i1 %71, double %68, double %62
  %73 = add nuw nsw i64 %51, 2
  %74 = add i64 %53, -2
  %75 = icmp eq i64 %74, 0
  br i1 %75, label %33, label %50, !llvm.loop !13

76:                                               ; preds = %48, %96
  %77 = phi i64 [ %98, %96 ], [ 0, %48 ]
  %78 = phi i32 [ %97, %96 ], [ 0, %48 ]
  %79 = getelementptr inbounds [300 x double], [300 x double]* %4, i64 0, i64 %77
  %80 = load double, double* %79, align 8, !tbaa !11
  %81 = fsub double %80, %49
  %82 = call double @llvm.fabs.f64(double %81)
  %83 = fcmp olt double %82, 0x3EB0C6F7A0B5ED8D
  br i1 %83, label %84, label %96

84:                                               ; preds = %76
  %85 = icmp eq i32 %78, 0
  br i1 %85, label %86, label %90

86:                                               ; preds = %84
  %87 = getelementptr inbounds [300 x i32], [300 x i32]* %3, i64 0, i64 %77
  %88 = load i32, i32* %87, align 4, !tbaa !5
  %89 = call nonnull align 8 dereferenceable(8) %"class.std::basic_ostream"* @_ZNSolsEi(%"class.std::basic_ostream"* nonnull align 8 dereferenceable(8) @_ZSt4cout, i32 %88)
  br label %96

90:                                               ; preds = %84
  call void @llvm.lifetime.start.p0i8(i64 1, i8* nonnull %1)
  store i8 44, i8* %1, align 1, !tbaa !14
  %91 = call nonnull align 8 dereferenceable(8) %"class.std::basic_ostream"* @_ZSt16__ostream_insertIcSt11char_traitsIcEERSt13basic_ostreamIT_T0_ES6_PKS3_l(%"class.std::basic_ostream"* nonnull align 8 dereferenceable(8) @_ZSt4cout, i8* nonnull %1, i64 1)
  call void @llvm.lifetime.end.p0i8(i64 1, i8* nonnull %1)
  %92 = getelementptr inbounds [300 x i32], [300 x i32]* %3, i64 0, i64 %77
  %93 = load i32, i32* %92, align 4, !tbaa !5
  %94 = call nonnull align 8 dereferenceable(8) %"class.std::basic_ostream"* @_ZNSolsEi(%"class.std::basic_ostream"* nonnull align 8 dereferenceable(8) %91, i32 %93)
  %95 = add nsw i32 %78, 1
  br label %96

96:                                               ; preds = %76, %90, %86
  %97 = phi i32 [ 1, %86 ], [ %95, %90 ], [ %78, %76 ]
  %98 = add nuw nsw i64 %77, 1
  %99 = load i32, i32* %2, align 4, !tbaa !5
  %100 = sext i32 %99 to i64
  %101 = icmp slt i64 %98, %100
  br i1 %101, label %76, label %102, !llvm.loop !15

102:                                              ; preds = %96, %22, %0, %48
  call void @llvm.lifetime.end.p0i8(i64 2400, i8* nonnull %7) #7
  call void @llvm.lifetime.end.p0i8(i64 1200, i8* nonnull %6) #7
  call void @llvm.lifetime.end.p0i8(i64 4, i8* nonnull %5) #7
  ret i32 0
}

; Function Attrs: argmemonly mustprogress nofree nosync nounwind willreturn
declare void @llvm.lifetime.start.p0i8(i64 immarg, i8* nocapture) #4

declare nonnull align 8 dereferenceable(16) %"class.std::basic_istream"* @_ZNSirsERi(%"class.std::basic_istream"* nonnull align 8 dereferenceable(16), i32* nonnull align 4 dereferenceable(4)) local_unnamed_addr #0

; Function Attrs: mustprogress nofree nosync nounwind readnone speculatable willreturn
declare double @llvm.fabs.f64(double) #5

declare nonnull align 8 dereferenceable(8) %"class.std::basic_ostream"* @_ZNSolsEi(%"class.std::basic_ostream"* nonnull align 8 dereferenceable(8), i32) local_unnamed_addr #0

; Function Attrs: argmemonly mustprogress nofree nosync nounwind willreturn
declare void @llvm.lifetime.end.p0i8(i64 immarg, i8* nocapture) #4

declare nonnull align 8 dereferenceable(8) %"class.std::basic_ostream"* @_ZSt16__ostream_insertIcSt11char_traitsIcEERSt13basic_ostreamIT_T0_ES6_PKS3_l(%"class.std::basic_ostream"* nonnull align 8 dereferenceable(8), i8*, i64) local_unnamed_addr #0

; Function Attrs: sspstrong uwtable
define internal void @_GLOBAL__sub_I_588.cpp() #6 section ".text.startup" {
  tail call void @_ZNSt8ios_base4InitC1Ev(%"class.std::ios_base::Init"* nonnull align 1 dereferenceable(1) @_ZStL8__ioinit)
  %1 = tail call i32 @__cxa_atexit(void (i8*)* bitcast (void (%"class.std::ios_base::Init"*)* @_ZNSt8ios_base4InitD1Ev to void (i8*)*), i8* getelementptr inbounds (%"class.std::ios_base::Init", %"class.std::ios_base::Init"* @_ZStL8__ioinit, i64 0, i32 0), i8* nonnull @__dso_handle) #7
  ret void
}


!llvm.module.flags = !{!0, !1, !2, !3}
!llvm.ident = !{!4}

!0 = !{i32 1, !"wchar_size", i32 4}
!1 = !{i32 7, !"PIC Level", i32 2}
!2 = !{i32 7, !"PIE Level", i32 2}
!3 = !{i32 7, !"uwtable", i32 1}
!4 = !{!"clang version 13.0.0"}
!5 = !{!6, !6, i64 0}
!6 = !{!"int", !7, i64 0}
!7 = !{!"omnipotent char", !8, i64 0}
!8 = !{!"Simple C++ TBAA"}
!9 = distinct !{!9, !10}
!10 = !{!"llvm.loop.mustprogress"}
!11 = !{!12, !12, i64 0}
!12 = !{!"double", !7, i64 0}
!13 = distinct !{!13, !10}
!14 = !{!7, !7, i64 0}
!15 = distinct !{!15, !10}
